target datalayout = "e-m:e-p270:32:32-p271:32:32-p272:64:64-i64:64-i128:128-f80:128-n8:16:32:64-S128"
target triple = "x86_64-pc-linux-gnu"

%struct.lstopo_output = type { ptr, i32, i32, i32, ptr, i32, i32, i32, i32, i32, i32, i32, i32, ptr, ptr, i32, i32, i64, i64, i64, i32, [3 x [128 x i8]], i32, i32, ptr, i32, i32, i32, i32, i32, i32, %struct.hwloc_calc_level, i32, i32, i32, i64, [256 x i8], i32, i32, i32, i32, i32, float, [20 x i32], i32, i32, i32, [20 x i32], i32, [20 x i32], i32, [20 x i32], i32, i32, i32, i32, ptr, ptr, i32, [20 x i32], [20 x i32], [20 x i32], ptr, ptr, i64, ptr, i32, i32, i32 }
%struct.hwloc_calc_level = type { i32, i32, %union.hwloc_obj_attr_u, [32 x i8], i32, i32, i32, i32 }
%union.hwloc_obj_attr_u = type { %struct.hwloc_numanode_attr_s, [24 x i8] }
%struct.hwloc_numanode_attr_s = type { i64, i32, ptr }
%struct.lstopo_color = type { i32, i32, i32, i32, %union.lstopo_color_private_u, ptr }
%union.lstopo_color_private_u = type { %struct.lstopo_color_private_ascii_s }
%struct.lstopo_color_private_ascii_s = type { i32 }
%struct.hwloc_obj = type { i32, ptr, i32, ptr, i64, ptr, i32, i32, ptr, ptr, ptr, i32, ptr, ptr, i32, ptr, ptr, ptr, i32, i32, ptr, i32, ptr, i32, ptr, ptr, ptr, ptr, ptr, %struct.hwloc_infos_s, ptr, i64 }
%struct.hwloc_infos_s = type { ptr, i32, i32 }
%struct.lstopo_obj_userdata = type { %struct.hwloc_utils_userdata, i32, i32, %struct.lstopo_style, i32, i32, i32, i32, %struct.lstopo_children_position, %struct.lstopo_children_position, %struct.lstopo_children_position, %struct.lstopo_children_position, i32, i32, i32, [4 x %struct.lstopo_text_line], i32, i32 }
%struct.hwloc_utils_userdata = type { ptr, i64, ptr, ptr }
%struct.lstopo_style = type { ptr, ptr, ptr }
%struct.lstopo_children_position = type { i32, i32, i32, i32, i32, i32, ptr }
%struct.lstopo_text_line = type { [128 x i8], i32, i32 }

@.str.22 = private unnamed_addr constant [5 x i8] c"%.4f\00", align 1
@.str.23 = private unnamed_addr constant [30 x i8] c"dash pattern=on %spt off %spt\00", align 1
@.str.24 = private unnamed_addr constant [99 x i8] c"\09\\filldraw [fill=hwloc-color-%d-%d-%d,draw=black,line width=%upt,%s] (%u,%u) rectangle ++(%u,%u);\0A\00", align 1

; Function Attrs: inlinehint nounwind uwtable
define internal i32 @lstopo_obj_cpukind_style(ptr noundef %0, ptr noundef %1) #6 {
  %3 = alloca i32, align 4
  %4 = alloca ptr, align 8
  %5 = alloca ptr, align 8
  %6 = alloca ptr, align 8
  store ptr %0, ptr %4, align 8, !tbaa !4
  store ptr %1, ptr %5, align 8, !tbaa !41
  %7 = load ptr, ptr %4, align 8, !tbaa !4
  %8 = getelementptr inbounds nuw %struct.lstopo_output, ptr %7, i32 0, i32 55
  %9 = load i32, ptr %8, align 8, !tbaa !51
  %10 = icmp ne i32 %9, 0
  br i1 %10, label %11, label %27

11:                                               ; preds = %2
  %12 = load ptr, ptr %5, align 8, !tbaa !41
  %13 = icmp ne ptr %12, null
  br i1 %13, label %14, label %26

14:                                               ; preds = %11
  %15 = load ptr, ptr %5, align 8, !tbaa !41
  %16 = getelementptr inbounds nuw %struct.hwloc_obj, ptr %15, i32 0, i32 30
  %17 = load ptr, ptr %16, align 8, !tbaa !52
  %18 = icmp ne ptr %17, null
  br i1 %18, label %19, label %26

19:                                               ; preds = %14
  call void @llvm.lifetime.start.p0(i64 8, ptr %6) #8
  %20 = load ptr, ptr %5, align 8, !tbaa !41
  %21 = getelementptr inbounds nuw %struct.hwloc_obj, ptr %20, i32 0, i32 30
  %22 = load ptr, ptr %21, align 8, !tbaa !52
  store ptr %22, ptr %6, align 8, !tbaa !58
  %23 = load ptr, ptr %6, align 8, !tbaa !58
  %24 = getelementptr inbounds nuw %struct.lstopo_obj_userdata, ptr %23, i32 0, i32 5
  %25 = load i32, ptr %24, align 4, !tbaa !60
  store i32 %25, ptr %3, align 4
  call void @llvm.lifetime.end.p0(i64 8, ptr %6) #8
  br label %28

26:                                               ; preds = %14, %11
  br label %27

27:                                               ; preds = %26, %2
  store i32 0, ptr %3, align 4
  br label %28

28:                                               ; preds = %27, %19
  %29 = load i32, ptr %3, align 4
  ret i32 %29
}

; Function Attrs: nounwind uwtable
define internal void @tikz_box(ptr noundef %0, ptr noundef %1, i32 noundef %2, i32 noundef %3, i32 noundef %4, i32 noundef %5, i32 noundef %6, ptr noundef %7, i32 noundef %8) #0 {
  %10 = alloca ptr, align 8
  %11 = alloca ptr, align 8
  %12 = alloca i32, align 4
  %13 = alloca i32, align 4
  %14 = alloca i32, align 4
  %15 = alloca i32, align 4
  %16 = alloca i32, align 4
  %17 = alloca ptr, align 8
  %18 = alloca i32, align 4
  %19 = alloca ptr, align 8
  %20 = alloca i32, align 4
  %21 = alloca i32, align 4
  %22 = alloca i32, align 4
  %23 = alloca i32, align 4
  %24 = alloca [64 x i8], align 16
  %25 = alloca i32, align 4
  %26 = alloca float, align 4
  %27 = alloca [20 x i8], align 16
  %28 = alloca ptr, align 8
  store ptr %0, ptr %10, align 8, !tbaa !4
  store ptr %1, ptr %11, align 8, !tbaa !35
  store i32 %2, ptr %12, align 4, !tbaa !24
  store i32 %3, ptr %13, align 4, !tbaa !24
  store i32 %4, ptr %14, align 4, !tbaa !24
  store i32 %5, ptr %15, align 4, !tbaa !24
  store i32 %6, ptr %16, align 4, !tbaa !24
  store ptr %7, ptr %17, align 8, !tbaa !41
  store i32 %8, ptr %18, align 4, !tbaa !24
  call void @llvm.lifetime.start.p0(i64 8, ptr %19) #8
  %29 = load ptr, ptr %10, align 8, !tbaa !4
  %30 = getelementptr inbounds nuw %struct.lstopo_output, ptr %29, i32 0, i32 4
  %31 = load ptr, ptr %30, align 8, !tbaa !25
  store ptr %31, ptr %19, align 8, !tbaa !23
  call void @llvm.lifetime.start.p0(i64 4, ptr %20) #8
  %32 = load ptr, ptr %11, align 8, !tbaa !35
  %33 = getelementptr inbounds nuw %struct.lstopo_color, ptr %32, i32 0, i32 0
  %34 = load i32, ptr %33, align 8, !tbaa !37
  store i32 %34, ptr %20, align 4, !tbaa !24
  call void @llvm.lifetime.start.p0(i64 4, ptr %21) #8
  %35 = load ptr, ptr %11, align 8, !tbaa !35
  %36 = getelementptr inbounds nuw %struct.lstopo_color, ptr %35, i32 0, i32 1
  %37 = load i32, ptr %36, align 4, !tbaa !39
  store i32 %37, ptr %21, align 4, !tbaa !24
  call void @llvm.lifetime.start.p0(i64 4, ptr %22) #8
  %38 = load ptr, ptr %11, align 8, !tbaa !35
  %39 = getelementptr inbounds nuw %struct.lstopo_color, ptr %38, i32 0, i32 2
  %40 = load i32, ptr %39, align 8, !tbaa !40
  store i32 %40, ptr %22, align 4, !tbaa !24
  call void @llvm.lifetime.start.p0(i64 4, ptr %23) #8
  %41 = load ptr, ptr %10, align 8, !tbaa !4
  %42 = load ptr, ptr %17, align 8, !tbaa !41
  %43 = call i32 @lstopo_obj_cpukind_style(ptr noundef %41, ptr noundef %42)
  store i32 %43, ptr %23, align 4, !tbaa !24
  call void @llvm.lifetime.start.p0(i64 64, ptr %24) #8
  call void @llvm.memset.p0.i64(ptr align 16 %24, i8 0, i64 64, i1 false)
  %44 = getelementptr inbounds [64 x i8], ptr %24, i32 0, i32 0
  store i8 115, ptr %44, align 16
  %45 = getelementptr inbounds [64 x i8], ptr %24, i32 0, i32 1
  store i8 111, ptr %45, align 1
  %46 = getelementptr inbounds [64 x i8], ptr %24, i32 0, i32 2
  store i8 108, ptr %46, align 2
  %47 = getelementptr inbounds [64 x i8], ptr %24, i32 0, i32 3
  store i8 105, ptr %47, align 1
  %48 = getelementptr inbounds [64 x i8], ptr %24, i32 0, i32 4
  store i8 100, ptr %48, align 4
  call void @llvm.lifetime.start.p0(i64 4, ptr %25) #8
  %49 = load ptr, ptr %10, align 8, !tbaa !4
  %50 = getelementptr inbounds nuw %struct.lstopo_output, ptr %49, i32 0, i32 41
  %51 = load i32, ptr %50, align 8, !tbaa !43
  store i32 %51, ptr %25, align 4, !tbaa !24
  call void @llvm.lifetime.start.p0(i64 4, ptr %26) #8
  store float 0x3FF2666660000000, ptr %26, align 4, !tbaa !44
  %52 = load i32, ptr %23, align 4, !tbaa !24
  %53 = icmp ne i32 %52, 0
  br i1 %53, label %54, label %78

54:                                               ; preds = %9
  call void @llvm.lifetime.start.p0(i64 20, ptr %27) #8
  call void @llvm.lifetime.start.p0(i64 8, ptr %28) #8
  store ptr null, ptr %28, align 8, !tbaa !9
  %55 = load i32, ptr %23, align 4, !tbaa !24
  %56 = load i32, ptr %25, align 4, !tbaa !24
  %57 = mul i32 %56, %55
  store i32 %57, ptr %25, align 4, !tbaa !24
  %58 = load i32, ptr %23, align 4, !tbaa !24
  %59 = shl i32 1, %58
  %60 = uitofp i32 %59 to float
  %61 = load float, ptr %26, align 4, !tbaa !44
  %62 = fmul float %61, %60
  store float %62, ptr %26, align 4, !tbaa !44
  %63 = getelementptr inbounds [20 x i8], ptr %27, i64 0, i64 0
  %64 = load float, ptr %26, align 4, !tbaa !44
  %65 = fpext float %64 to double
  %66 = call i32 (ptr, i64, ptr, ...) @snprintf(ptr noundef %63, i64 noundef 20, ptr noundef @.str.22, double noundef %65) #8
  %67 = getelementptr inbounds [20 x i8], ptr %27, i64 0, i64 0
  %68 = call ptr @strchr(ptr noundef %67, i32 noundef 44) #10
  store ptr %68, ptr %28, align 8, !tbaa !9
  %69 = load ptr, ptr %28, align 8, !tbaa !9
  %70 = icmp ne ptr %69, null
  br i1 %70, label %71, label %73

71:                                               ; preds = %54
  %72 = load ptr, ptr %28, align 8, !tbaa !9
  store i8 46, ptr %72, align 1, !tbaa !34
  br label %73

73:                                               ; preds = %71, %54
  %74 = getelementptr inbounds [64 x i8], ptr %24, i64 0, i64 0
  %75 = getelementptr inbounds [20 x i8], ptr %27, i64 0, i64 0
  %76 = getelementptr inbounds [20 x i8], ptr %27, i64 0, i64 0
  %77 = call i32 (ptr, i64, ptr, ...) @snprintf(ptr noundef %74, i64 noundef 64, ptr noundef @.str.23, ptr noundef %75, ptr noundef %76) #8
  call void @llvm.lifetime.end.p0(i64 8, ptr %28) #8
  call void @llvm.lifetime.end.p0(i64 20, ptr %27) #8
  br label %78

78:                                               ; preds = %73, %9
  %79 = load ptr, ptr %19, align 8, !tbaa !23
  %80 = load i32, ptr %20, align 4, !tbaa !24
  %81 = load i32, ptr %21, align 4, !tbaa !24
  %82 = load i32, ptr %22, align 4, !tbaa !24
  %83 = load i32, ptr %25, align 4, !tbaa !24
  %84 = getelementptr inbounds [64 x i8], ptr %24, i64 0, i64 0
  %85 = load i32, ptr %13, align 4, !tbaa !24
  %86 = load i32, ptr %15, align 4, !tbaa !24
  %87 = load i32, ptr %14, align 4, !tbaa !24
  %88 = load i32, ptr %16, align 4, !tbaa !24
  %89 = call i32 (ptr, ptr, ...) @fprintf(ptr noundef %79, ptr noundef @.str.24, i32 noundef %80, i32 noundef %81, i32 noundef %82, i32 noundef %83, ptr noundef %84, i32 noundef %85, i32 noundef %86, i32 noundef %87, i32 noundef %88) #8
  call void @llvm.lifetime.end.p0(i64 4, ptr %26) #8
  call void @llvm.lifetime.end.p0(i64 4, ptr %25) #8
  call void @llvm.lifetime.end.p0(i64 64, ptr %24) #8
  call void @llvm.lifetime.end.p0(i64 4, ptr %23) #8
  call void @llvm.lifetime.end.p0(i64 4, ptr %22) #8
  call void @llvm.lifetime.end.p0(i64 4, ptr %21) #8
  call void @llvm.lifetime.end.p0(i64 4, ptr %20) #8
  call void @llvm.lifetime.end.p0(i64 8, ptr %19) #8
  ret void
}