; Function Attrs: nofree nounwind uwtable
define internal void @tikz_box(ptr noundef readonly captures(none) %0, ptr noundef readonly captures(none) %1, i32 %2, i32 noundef %3, i32 noundef %4, i32 noundef %5, i32 noundef %6, ptr noundef readonly captures(address_is_null) %7, i32 %8) #8 {
  %10 = alloca [64 x i8], align 16
  %11 = alloca [20 x i8], align 16
  %12 = getelementptr inbounds nuw i8, ptr %0, i64 24
  %13 = load ptr, ptr %12, align 8, !tbaa !23
  %14 = load i32, ptr %1, align 8, !tbaa !32
  %15 = getelementptr inbounds nuw i8, ptr %1, i64 4
  %16 = load i32, ptr %15, align 4, !tbaa !35
  %17 = getelementptr inbounds nuw i8, ptr %1, i64 8
  %18 = load i32, ptr %17, align 8, !tbaa !36
  %19 = getelementptr i8, ptr %0, i64 1304
  %.val = load i32, ptr %19, align 8, !tbaa !37
  %20 = icmp ne i32 %.val, 0
  %21 = icmp ne ptr %7, null
  %or.cond.i = and i1 %21, %20
  br i1 %or.cond.i, label %22, label %lstopo_obj_cpukind_style.exit

22:                                               ; preds = %9
  %23 = getelementptr inbounds nuw i8, ptr %7, i64 232
  %24 = load ptr, ptr %23, align 8, !tbaa !38
  %.not.i = icmp eq ptr %24, null
  br i1 %.not.i, label %lstopo_obj_cpukind_style.exit, label %25

25:                                               ; preds = %22
  %26 = getelementptr inbounds nuw i8, ptr %24, i64 68
  %27 = load i32, ptr %26, align 4, !tbaa !45
  br label %lstopo_obj_cpukind_style.exit

lstopo_obj_cpukind_style.exit:                    ; preds = %9, %22, %25
  %.0.i = phi i32 [ %27, %25 ], [ 0, %22 ], [ 0, %9 ]
  call void @llvm.lifetime.start.p0(i64 64, ptr nonnull %10) #13
  call void @llvm.memset.p0.i64(ptr noundef nonnull align 16 dereferenceable(64) %10, i8 0, i64 64, i1 false)
  store i8 115, ptr %10, align 16
  %28 = getelementptr inbounds nuw i8, ptr %10, i64 1
  store i8 111, ptr %28, align 1
  %29 = getelementptr inbounds nuw i8, ptr %10, i64 2
  store i8 108, ptr %29, align 2
  %30 = getelementptr inbounds nuw i8, ptr %10, i64 3
  store i8 105, ptr %30, align 1
  %31 = getelementptr inbounds nuw i8, ptr %10, i64 4
  store i8 100, ptr %31, align 4
  %32 = getelementptr inbounds nuw i8, ptr %0, i64 944
  %33 = load i32, ptr %32, align 8, !tbaa !51
  %.not = icmp eq i32 %.0.i, 0
  br i1 %.not, label %45, label %34

34:                                               ; preds = %lstopo_obj_cpukind_style.exit
  call void @llvm.lifetime.start.p0(i64 20, ptr nonnull %11) #13
  %35 = mul i32 %33, %.0.i
  %36 = shl nuw i32 1, %.0.i
  %37 = uitofp i32 %36 to float
  %38 = fmul float %37, 0x3FF2666660000000
  %39 = fpext float %38 to double
  %40 = call i32 (ptr, i64, ptr, ...) @snprintf(ptr noundef nonnull dereferenceable(1) %11, i64 noundef 20, ptr noundef nonnull @.str.22, double noundef %39) #13
  %41 = call ptr @strchr(ptr noundef nonnull dereferenceable(1) %11, i32 noundef 44) #16
  %.not25 = icmp eq ptr %41, null
  br i1 %.not25, label %43, label %42

42:                                               ; preds = %34
  store i8 46, ptr %41, align 1, !tbaa !22
  br label %43

43:                                               ; preds = %42, %34
  %44 = call i32 (ptr, i64, ptr, ...) @snprintf(ptr noundef nonnull dereferenceable(1) %10, i64 noundef 64, ptr noundef nonnull @.str.23, ptr noundef nonnull %11, ptr noundef nonnull %11) #13
  call void @llvm.lifetime.end.p0(i64 20, ptr nonnull %11) #13
  br label %45

45:                                               ; preds = %43, %lstopo_obj_cpukind_style.exit
  %.0 = phi i32 [ %35, %43 ], [ %33, %lstopo_obj_cpukind_style.exit ]
  %46 = call i32 (ptr, ptr, ...) @fprintf(ptr noundef %13, ptr noundef nonnull @.str.24, i32 noundef %14, i32 noundef %16, i32 noundef %18, i32 noundef %.0, ptr noundef nonnull %10, i32 noundef %3, i32 noundef %5, i32 noundef %4, i32 noundef %6) #13
  call void @llvm.lifetime.end.p0(i64 64, ptr nonnull %10) #13
  ret void
}